; Function Attrs: mustprogress uwtable
define void @_ZN19OpenColorIO_v2_4dev9Processor4Impl12setTransformERKNS_6ConfigERKSt10shared_ptrIKNS_7ContextEERKS5_IKNS_9TransformEENS_18TransformDirectionE(ptr noundef nonnull align 8 dereferenceable(552) %this, ptr noundef nonnull align 8 dereferenceable(8) %config, ptr noundef nonnull align 8 dereferenceable(16) %context, ptr noundef nonnull align 8 dereferenceable(16) %transform, i32 noundef %direction) local_unnamed_addr #0 align 2 personality ptr @__gxx_personality_v0 {
entry:
  %m_ops = getelementptr inbounds i8, ptr %this, i64 16
  %0 = load ptr, ptr %m_ops, align 8
  %_M_finish.i.i.i = getelementptr inbounds i8, ptr %this, i64 24
  %1 = load ptr, ptr %_M_finish.i.i.i, align 8
  %cmp.i.i.i = icmp eq ptr %0, %1
  br i1 %cmp.i.i.i, label %if.end, label %if.then

if.then:                                          ; preds = %entry
  %exception = tail call ptr @__cxa_allocate_exception(i64 16) #22
  invoke void @_ZN19OpenColorIO_v2_4dev9ExceptionC1EPKc(ptr noundef nonnull align 8 dereferenceable(16) %exception, ptr noundef nonnull @.str.3)
          to label %invoke.cont unwind label %lpad

invoke.cont:                                      ; preds = %if.then
  tail call void @__cxa_throw(ptr nonnull %exception, ptr nonnull @_ZTIN19OpenColorIO_v2_4dev9ExceptionE, ptr nonnull @_ZN19OpenColorIO_v2_4dev9ExceptionD1Ev) #24
  unreachable

lpad:                                             ; preds = %if.then
  %2 = landingpad { ptr, i32 }
          cleanup
  tail call void @__cxa_free_exception(ptr %exception) #22
  resume { ptr, i32 } %2

if.end:                                           ; preds = %entry
  %3 = load ptr, ptr %transform, align 8
  %vtable = load ptr, ptr %3, align 8
  %vfn = getelementptr inbounds i8, ptr %vtable, i64 32
  %4 = load ptr, ptr %vfn, align 8
  tail call void %4(ptr noundef nonnull align 8 dereferenceable(8) %3)
  tail call void @_ZN19OpenColorIO_v2_4dev8BuildOpsERNS_10OpRcPtrVecERKNS_6ConfigERKSt10shared_ptrIKNS_7ContextEERKS5_IKNS_9TransformEENS_18TransformDirectionE(ptr noundef nonnull align 8 dereferenceable(144) %m_ops, ptr noundef nonnull align 8 dereferenceable(8) %config, ptr noundef nonnull align 8 dereferenceable(16) %context, ptr noundef nonnull align 8 dereferenceable(16) %transform, i32 noundef %direction)
  tail call void @_ZN19OpenColorIO_v2_4dev10OpRcPtrVec8finalizeEv(ptr noundef nonnull align 8 dereferenceable(144) %m_ops)
  tail call void @_ZN19OpenColorIO_v2_4dev10OpRcPtrVec25validateDynamicPropertiesEv(ptr noundef nonnull align 8 dereferenceable(144) %m_ops)
  ret void
}